target datalayout = "e-m:e-p270:32:32-p271:32:32-p272:64:64-i64:64-i128:128-f80:128-n8:16:32:64-S128"
target triple = "x86_64-pc-linux-gnu"

%struct.VideoBootStrap = type { ptr, ptr, ptr, ptr, i8 }

@SDL_GetNumVideoDrivers_REAL.num_drivers = internal global i32 -1, align 4
@bootstrap = internal global [8 x ptr] [ptr @Wayland_preferred_bootstrap, ptr @X11_bootstrap, ptr @Wayland_bootstrap, ptr @KMSDRM_bootstrap, ptr @OFFSCREEN_bootstrap, ptr @DUMMY_bootstrap, ptr @DUMMY_evdev_bootstrap, ptr null], align 16
@deduped_bootstrap = internal global [7 x ptr] zeroinitializer, align 16

; Function Attrs: nounwind uwtable
define hidden i32 @SDL_GetNumVideoDrivers_REAL() #0 {
  %1 = alloca i32, align 4
  %2 = alloca i32, align 4
  %3 = alloca i32, align 4
  %4 = alloca i8, align 1
  %5 = alloca i32, align 4
  %6 = load i32, ptr @SDL_GetNumVideoDrivers_REAL.num_drivers, align 4
  %7 = icmp sge i32 %6, 0
  br i1 %7, label %8, label %10

8:                                                ; preds = %0
  %9 = load i32, ptr @SDL_GetNumVideoDrivers_REAL.num_drivers, align 4
  store i32 %9, ptr %1, align 4
  br label %63

10:                                               ; preds = %0
  store i32 0, ptr @SDL_GetNumVideoDrivers_REAL.num_drivers, align 4
  call void @llvm.lifetime.start.p0(i64 4, ptr %2) #10
  store i32 0, ptr %2, align 4
  br label %11

11:                                               ; preds = %58, %10
  %12 = load i32, ptr %2, align 4
  %13 = sext i32 %12 to i64
  %14 = getelementptr inbounds [8 x ptr], ptr @bootstrap, i64 0, i64 %13
  %15 = load ptr, ptr %14, align 8
  %16 = icmp ne ptr %15, null
  br i1 %16, label %18, label %17

17:                                               ; preds = %11
  store i32 2, ptr %3, align 4
  call void @llvm.lifetime.end.p0(i64 4, ptr %2) #10
  br label %61

18:                                               ; preds = %11
  call void @llvm.lifetime.start.p0(i64 1, ptr %4) #10
  store i8 0, ptr %4, align 1
  call void @llvm.lifetime.start.p0(i64 4, ptr %5) #10
  store i32 0, ptr %5, align 4
  br label %19

19:                                               ; preds = %41, %18
  %20 = load i32, ptr %5, align 4
  %21 = load i32, ptr %2, align 4
  %22 = icmp slt i32 %20, %21
  br i1 %22, label %24, label %23

23:                                               ; preds = %19
  store i32 5, ptr %3, align 4
  br label %44

24:                                               ; preds = %19
  %25 = load i32, ptr %2, align 4
  %26 = sext i32 %25 to i64
  %27 = getelementptr inbounds [8 x ptr], ptr @bootstrap, i64 0, i64 %26
  %28 = load ptr, ptr %27, align 8
  %29 = getelementptr inbounds nuw %struct.VideoBootStrap, ptr %28, i32 0, i32 0
  %30 = load ptr, ptr %29, align 8
  %31 = load i32, ptr %5, align 4
  %32 = sext i32 %31 to i64
  %33 = getelementptr inbounds [8 x ptr], ptr @bootstrap, i64 0, i64 %32
  %34 = load ptr, ptr %33, align 8
  %35 = getelementptr inbounds nuw %struct.VideoBootStrap, ptr %34, i32 0, i32 0
  %36 = load ptr, ptr %35, align 8
  %37 = call i32 @SDL_strcmp_REAL(ptr noundef %30, ptr noundef %36)
  %38 = icmp eq i32 %37, 0
  br i1 %38, label %39, label %40

39:                                               ; preds = %24
  store i8 1, ptr %4, align 1
  store i32 5, ptr %3, align 4
  br label %44

40:                                               ; preds = %24
  br label %41

41:                                               ; preds = %40
  %42 = load i32, ptr %5, align 4
  %43 = add nsw i32 %42, 1
  store i32 %43, ptr %5, align 4
  br label %19, !llvm.loop !3

44:                                               ; preds = %39, %23
  call void @llvm.lifetime.end.p0(i64 4, ptr %5) #10
  br label %45

45:                                               ; preds = %44
  %46 = load i8, ptr %4, align 1, !range !5, !noundef !6
  %47 = trunc i8 %46 to i1
  br i1 %47, label %57, label %48

48:                                               ; preds = %45
  %49 = load i32, ptr %2, align 4
  %50 = sext i32 %49 to i64
  %51 = getelementptr inbounds [8 x ptr], ptr @bootstrap, i64 0, i64 %50
  %52 = load ptr, ptr %51, align 8
  %53 = load i32, ptr @SDL_GetNumVideoDrivers_REAL.num_drivers, align 4
  %54 = add nsw i32 %53, 1
  store i32 %54, ptr @SDL_GetNumVideoDrivers_REAL.num_drivers, align 4
  %55 = sext i32 %53 to i64
  %56 = getelementptr inbounds [7 x ptr], ptr @deduped_bootstrap, i64 0, i64 %55
  store ptr %52, ptr %56, align 8
  br label %57

57:                                               ; preds = %48, %45
  call void @llvm.lifetime.end.p0(i64 1, ptr %4) #10
  br label %58

58:                                               ; preds = %57
  %59 = load i32, ptr %2, align 4
  %60 = add nsw i32 %59, 1
  store i32 %60, ptr %2, align 4
  br label %11, !llvm.loop !7

61:                                               ; preds = %17
  %62 = load i32, ptr @SDL_GetNumVideoDrivers_REAL.num_drivers, align 4
  store i32 %62, ptr %1, align 4
  br label %63

63:                                               ; preds = %61, %8
  %64 = load i32, ptr %1, align 4
  ret i32 %64
}